; Function Attrs: nounwind uwtable
define void @ossl_quic_free_peer_token(ptr noundef %0) local_unnamed_addr #0 {
  %2 = atomicrmw sub ptr %0, i32 1 release, align 4
  %3 = icmp eq i32 %2, 1
  br i1 %3, label %CRYPTO_DOWN_REF.exit.thread, label %CRYPTO_DOWN_REF.exit

CRYPTO_DOWN_REF.exit.thread:                      ; preds = %1
  fence acquire
  br label %5

CRYPTO_DOWN_REF.exit:                             ; preds = %1
  %4 = icmp sgt i32 %2, 1
  br i1 %4, label %6, label %5

5:                                                ; preds = %CRYPTO_DOWN_REF.exit.thread, %CRYPTO_DOWN_REF.exit
  tail call void @CRYPTO_free(ptr noundef %0, ptr noundef nonnull @.str, i32 noundef 4863) #12
  br label %6

6:                                                ; preds = %CRYPTO_DOWN_REF.exit, %5
  ret void
}